; Function Attrs: nounwind uwtable
define void @av_parser_close(ptr noundef %0) local_unnamed_addr #0 {
  %.not = icmp eq ptr %0, null
  br i1 %.not, label %9, label %2

2:                                                ; preds = %1
  %3 = getelementptr inbounds nuw i8, ptr %0, i64 8
  %4 = load ptr, ptr %3, align 8, !tbaa !12
  %5 = getelementptr inbounds nuw i8, ptr %4, i64 48
  %6 = load ptr, ptr %5, align 8, !tbaa !71
  %.not7 = icmp eq ptr %6, null
  br i1 %.not7, label %8, label %7

7:                                                ; preds = %2
  tail call void %6(ptr noundef nonnull %0) #8
  br label %8

8:                                                ; preds = %7, %2
  tail call void @av_freep(ptr noundef nonnull %0) #8
  tail call void @av_free(ptr noundef nonnull %0) #8
  br label %9

9:                                                ; preds = %8, %1
  ret void
}